; Function Attrs: nounwind uwtable
define internal ptr @test_pytime_assecondsdouble(ptr readnone captures(none) %0, ptr noundef %1) #0 {
  %3 = alloca ptr, align 8
  call void @llvm.lifetime.start.p0(i64 8, ptr nonnull %3) #4
  %4 = call i32 (ptr, ptr, ...) @PyArg_ParseTuple(ptr noundef %1, ptr noundef nonnull @.str.10, ptr noundef nonnull %3) #4
  %.not = icmp eq i32 %4, 0
  br i1 %.not, label %pytime_from_nanoseconds.exit.thread, label %5

5:                                                ; preds = %2
  %6 = load ptr, ptr %3, align 8, !tbaa !3
  %7 = getelementptr i8, ptr %6, i64 8
  %.val.i = load ptr, ptr %7, align 8, !tbaa !8
  %8 = getelementptr i8, ptr %.val.i, i64 168
  %.val8.i = load i64, ptr %8, align 8, !tbaa !11
  %9 = and i64 %.val8.i, 16777216
  %.not.i = icmp eq i64 %9, 0
  br i1 %.not.i, label %10, label %15

10:                                               ; preds = %5
  %11 = load ptr, ptr @PyExc_TypeError, align 8, !tbaa !3
  %12 = getelementptr inbounds nuw i8, ptr %.val.i, i64 24
  %13 = load ptr, ptr %12, align 8, !tbaa !21
  %14 = call ptr (ptr, ptr, ...) @PyErr_Format(ptr noundef %11, ptr noundef nonnull @.str.11, ptr noundef %13) #4
  br label %pytime_from_nanoseconds.exit.thread

15:                                               ; preds = %5
  %16 = call i64 @PyLong_AsLongLong(ptr noundef nonnull %6) #4
  %17 = icmp eq i64 %16, -1
  br i1 %17, label %18, label %pytime_from_nanoseconds.exit

18:                                               ; preds = %15
  %19 = call ptr @PyErr_Occurred() #4
  %.not6.i = icmp eq ptr %19, null
  br i1 %.not6.i, label %pytime_from_nanoseconds.exit, label %pytime_from_nanoseconds.exit.thread

pytime_from_nanoseconds.exit:                     ; preds = %18, %15
  %20 = call double @PyTime_AsSecondsDouble(i64 noundef %16) #4
  %21 = call ptr @PyFloat_FromDouble(double noundef %20) #4
  br label %pytime_from_nanoseconds.exit.thread

pytime_from_nanoseconds.exit.thread:              ; preds = %18, %10, %pytime_from_nanoseconds.exit, %2
  %.0 = phi ptr [ null, %2 ], [ %21, %pytime_from_nanoseconds.exit ], [ null, %10 ], [ null, %18 ]
  call void @llvm.lifetime.end.p0(i64 8, ptr nonnull %3) #4
  ret ptr %.0
}